; ModuleID = '57/3287.c'
source_filename = "57/3287.c"
target datalayout = "e-m:e-p270:32:32-p271:32:32-p272:64:64-i64:64-f80:128-n8:16:32:64-S128"
target triple = "x86_64-pc-linux-gnu"

@.str = private unnamed_addr constant [3 x i8] c"%d\00", align 1

; Function Attrs: noinline nounwind uwtable
define dso_local i32 @main() #0 {
  %1 = alloca i32, align 4
  %2 = alloca i32, align 4
  %3 = alloca i32, align 4
  %4 = alloca i32, align 4
  %5 = alloca [50 x [32 x i8]], align 16
  store i32 0, i32* %1, align 4
  %6 = call i32 (i8*, ...) @__isoc99_scanf(i8* getelementptr inbounds ([3 x i8], [3 x i8]* @.str, i64 0, i64 0), i32* %3)
  store i32 0, i32* %4, align 4
  br label %7

7:                                                ; preds = %17, %0
  %8 = load i32, i32* %4, align 4
  %9 = load i32, i32* %3, align 4
  %10 = icmp sle i32 %8, %9
  br i1 %10, label %11, label %20

11:                                               ; preds = %7
  %12 = load i32, i32* %4, align 4
  %13 = sext i32 %12 to i64
  %14 = getelementptr inbounds [50 x [32 x i8]], [50 x [32 x i8]]* %5, i64 0, i64 %13
  %15 = getelementptr inbounds [32 x i8], [32 x i8]* %14, i64 0, i64 0
  %16 = call i32 (i8*, ...) bitcast (i32 (...)* @gets to i32 (i8*, ...)*)(i8* %15)
  br label %17

17:                                               ; preds = %11
  %18 = load i32, i32* %4, align 4
  %19 = add nsw i32 %18, 1
  store i32 %19, i32* %4, align 4
  br label %7

20:                                               ; preds = %7
  store i32 0, i32* %4, align 4
  br label %21

21:                                               ; preds = %126, %20
  %22 = load i32, i32* %4, align 4
  %23 = load i32, i32* %3, align 4
  %24 = icmp sle i32 %22, %23
  br i1 %24, label %25, label %129

25:                                               ; preds = %21
  %26 = load i32, i32* %4, align 4
  %27 = sext i32 %26 to i64
  %28 = getelementptr inbounds [50 x [32 x i8]], [50 x [32 x i8]]* %5, i64 0, i64 %27
  %29 = getelementptr inbounds [32 x i8], [32 x i8]* %28, i64 0, i64 0
  %30 = call i64 @strlen(i8* %29) #3
  %31 = trunc i64 %30 to i32
  store i32 %31, i32* %2, align 4
  %32 = load i32, i32* %4, align 4
  %33 = sext i32 %32 to i64
  %34 = getelementptr inbounds [50 x [32 x i8]], [50 x [32 x i8]]* %5, i64 0, i64 %33
  %35 = load i32, i32* %2, align 4
  %36 = sub nsw i32 %35, 3
  %37 = sext i32 %36 to i64
  %38 = getelementptr inbounds [32 x i8], [32 x i8]* %34, i64 0, i64 %37
  %39 = load i8, i8* %38, align 1
  %40 = sext i8 %39 to i32
  %41 = icmp eq i32 %40, 105
  br i1 %41, label %42, label %72

42:                                               ; preds = %25
  %43 = load i32, i32* %4, align 4
  %44 = sext i32 %43 to i64
  %45 = getelementptr inbounds [50 x [32 x i8]], [50 x [32 x i8]]* %5, i64 0, i64 %44
  %46 = load i32, i32* %2, align 4
  %47 = sub nsw i32 %46, 2
  %48 = sext i32 %47 to i64
  %49 = getelementptr inbounds [32 x i8], [32 x i8]* %45, i64 0, i64 %48
  %50 = load i8, i8* %49, align 1
  %51 = sext i8 %50 to i32
  %52 = icmp eq i32 %51, 110
  br i1 %52, label %53, label %72

53:                                               ; preds = %42
  %54 = load i32, i32* %4, align 4
  %55 = sext i32 %54 to i64
  %56 = getelementptr inbounds [50 x [32 x i8]], [50 x [32 x i8]]* %5, i64 0, i64 %55
  %57 = load i32, i32* %2, align 4
  %58 = sub nsw i32 %57, 1
  %59 = sext i32 %58 to i64
  %60 = getelementptr inbounds [32 x i8], [32 x i8]* %56, i64 0, i64 %59
  %61 = load i8, i8* %60, align 1
  %62 = sext i8 %61 to i32
  %63 = icmp eq i32 %62, 103
  br i1 %63, label %64, label %72

64:                                               ; preds = %53
  %65 = load i32, i32* %4, align 4
  %66 = sext i32 %65 to i64
  %67 = getelementptr inbounds [50 x [32 x i8]], [50 x [32 x i8]]* %5, i64 0, i64 %66
  %68 = load i32, i32* %2, align 4
  %69 = sub nsw i32 %68, 3
  %70 = sext i32 %69 to i64
  %71 = getelementptr inbounds [32 x i8], [32 x i8]* %67, i64 0, i64 %70
  store i8 0, i8* %71, align 1
  br label %125

72:                                               ; preds = %53, %42, %25
  %73 = load i32, i32* %4, align 4
  %74 = sext i32 %73 to i64
  %75 = getelementptr inbounds [50 x [32 x i8]], [50 x [32 x i8]]* %5, i64 0, i64 %74
  %76 = load i32, i32* %2, align 4
  %77 = sub nsw i32 %76, 2
  %78 = sext i32 %77 to i64
  %79 = getelementptr inbounds [32 x i8], [32 x i8]* %75, i64 0, i64 %78
  %80 = load i8, i8* %79, align 1
  %81 = sext i8 %80 to i32
  %82 = icmp eq i32 %81, 101
  br i1 %82, label %83, label %94

83:                                               ; preds = %72
  %84 = load i32, i32* %4, align 4
  %85 = sext i32 %84 to i64
  %86 = getelementptr inbounds [50 x [32 x i8]], [50 x [32 x i8]]* %5, i64 0, i64 %85
  %87 = load i32, i32* %2, align 4
  %88 = sub nsw i32 %87, 1
  %89 = sext i32 %88 to i64
  %90 = getelementptr inbounds [32 x i8], [32 x i8]* %86, i64 0, i64 %89
  %91 = load i8, i8* %90, align 1
  %92 = sext i8 %91 to i32
  %93 = icmp eq i32 %92, 114
  br i1 %93, label %116, label %94

94:                                               ; preds = %83, %72
  %95 = load i32, i32* %4, align 4
  %96 = sext i32 %95 to i64
  %97 = getelementptr inbounds [50 x [32 x i8]], [50 x [32 x i8]]* %5, i64 0, i64 %96
  %98 = load i32, i32* %2, align 4
  %99 = sub nsw i32 %98, 2
  %100 = sext i32 %99 to i64
  %101 = getelementptr inbounds [32 x i8], [32 x i8]* %97, i64 0, i64 %100
  %102 = load i8, i8* %101, align 1
  %103 = sext i8 %102 to i32
  %104 = icmp eq i32 %103, 108
  br i1 %104, label %105, label %124

105:                                              ; preds = %94
  %106 = load i32, i32* %4, align 4
  %107 = sext i32 %106 to i64
  %108 = getelementptr inbounds [50 x [32 x i8]], [50 x [32 x i8]]* %5, i64 0, i64 %107
  %109 = load i32, i32* %2, align 4
  %110 = sub nsw i32 %109, 1
  %111 = sext i32 %110 to i64
  %112 = getelementptr inbounds [32 x i8], [32 x i8]* %108, i64 0, i64 %111
  %113 = load i8, i8* %112, align 1
  %114 = sext i8 %113 to i32
  %115 = icmp eq i32 %114, 121
  br i1 %115, label %116, label %124

116:                                              ; preds = %105, %83
  %117 = load i32, i32* %4, align 4
  %118 = sext i32 %117 to i64
  %119 = getelementptr inbounds [50 x [32 x i8]], [50 x [32 x i8]]* %5, i64 0, i64 %118
  %120 = load i32, i32* %2, align 4
  %121 = sub nsw i32 %120, 2
  %122 = sext i32 %121 to i64
  %123 = getelementptr inbounds [32 x i8], [32 x i8]* %119, i64 0, i64 %122
  store i8 0, i8* %123, align 1
  br label %124

124:                                              ; preds = %116, %105, %94
  br label %125

125:                                              ; preds = %124, %64
  br label %126

126:                                              ; preds = %125
  %127 = load i32, i32* %4, align 4
  %128 = add nsw i32 %127, 1
  store i32 %128, i32* %4, align 4
  br label %21

129:                                              ; preds = %21
  store i32 0, i32* %4, align 4
  br label %130

130:                                              ; preds = %140, %129
  %131 = load i32, i32* %4, align 4
  %132 = load i32, i32* %3, align 4
  %133 = icmp sle i32 %131, %132
  br i1 %133, label %134, label %143

134:                                              ; preds = %130
  %135 = load i32, i32* %4, align 4
  %136 = sext i32 %135 to i64
  %137 = getelementptr inbounds [50 x [32 x i8]], [50 x [32 x i8]]* %5, i64 0, i64 %136
  %138 = getelementptr inbounds [32 x i8], [32 x i8]* %137, i64 0, i64 0
  %139 = call i32 @puts(i8* %138)
  br label %140

140:                                              ; preds = %134
  %141 = load i32, i32* %4, align 4
  %142 = add nsw i32 %141, 1
  store i32 %142, i32* %4, align 4
  br label %130

143:                                              ; preds = %130
  ret i32 0
}

declare dso_local i32 @__isoc99_scanf(i8*, ...) #1

declare dso_local i32 @gets(...) #1

; Function Attrs: nounwind readonly
declare dso_local i64 @strlen(i8*) #2

declare dso_local i32 @puts(i8*) #1


!llvm.module.flags = !{!0}
!llvm.ident = !{!1}

!0 = !{i32 1, !"wchar_size", i32 4}
!1 = !{!"clang version 10.0.0-4ubuntu1 "}
